target datalayout = "e-m:e-p270:32:32-p271:32:32-p272:64:64-i64:64-i128:128-f80:128-n8:16:32:64-S128"
target triple = "x86_64-unknown-linux-gnu"

%"class.std::set.0" = type { %"class.std::_Rb_tree.1" }
%"class.std::_Rb_tree.1" = type { %"struct.std::_Rb_tree<QuantLib::Observer *, QuantLib::Observer *, std::_Identity<QuantLib::Observer *>, std::less<QuantLib::Observer *>>::_Rb_tree_impl" }
%"struct.std::_Rb_tree<QuantLib::Observer *, QuantLib::Observer *, std::_Identity<QuantLib::Observer *>, std::less<QuantLib::Observer *>>::_Rb_tree_impl" = type { [8 x i8], %"struct.std::_Rb_tree_header" }
%"struct.std::_Rb_tree_header" = type { %"struct.std::_Rb_tree_node_base", i64 }
%"struct.std::_Rb_tree_node_base" = type { i32, ptr, ptr, ptr }
%"class.std::set" = type { %"class.std::_Rb_tree" }
%"class.std::_Rb_tree" = type { %"struct.std::_Rb_tree<boost::shared_ptr<QuantLib::Observable>, boost::shared_ptr<QuantLib::Observable>, std::_Identity<boost::shared_ptr<QuantLib::Observable>>, std::less<boost::shared_ptr<QuantLib::Observable>>>::_Rb_tree_impl" }
%"struct.std::_Rb_tree<boost::shared_ptr<QuantLib::Observable>, boost::shared_ptr<QuantLib::Observable>, std::_Identity<boost::shared_ptr<QuantLib::Observable>>, std::less<boost::shared_ptr<QuantLib::Observable>>>::_Rb_tree_impl" = type { [8 x i8], %"struct.std::_Rb_tree_header" }
%"class.boost::detail::shared_count" = type { ptr }
%"class.QuantLib::Observable" = type { ptr, %"class.std::set.0" }
%"class.QuantLib::HestonSLVProcess" = type { %"class.QuantLib::StochasticProcess", double, double, double, double, double, double, double, %"class.boost::shared_ptr.10", %"class.boost::shared_ptr.8" }
%"class.QuantLib::StochasticProcess" = type { %"class.QuantLib::Observer", %"class.QuantLib::Observable", %"class.boost::shared_ptr.9" }
%"class.QuantLib::Observer" = type { ptr, %"class.std::set" }
%"class.boost::shared_ptr.9" = type { ptr, %"class.boost::detail::shared_count" }
%"class.boost::shared_ptr.10" = type { ptr, %"class.boost::detail::shared_count" }
%"class.boost::shared_ptr.8" = type { ptr, %"class.boost::detail::shared_count" }
%"class.QuantLib::Handle" = type { %"class.boost::shared_ptr.13" }
%"class.boost::shared_ptr.13" = type { ptr, %"class.boost::detail::shared_count" }
%"class.QuantLib::HestonProcess" = type <{ %"class.QuantLib::StochasticProcess", %"class.QuantLib::Handle", %"class.QuantLib::Handle", %"class.QuantLib::Handle.28", double, double, double, double, double, i32, [4 x i8] }>
%"class.QuantLib::Handle.28" = type { %"class.boost::shared_ptr.29" }
%"class.boost::shared_ptr.29" = type { ptr, %"class.boost::detail::shared_count" }

@.str.9 = private unnamed_addr constant [8 x i8] c"px != 0\00", align 1
@.str.10 = private unnamed_addr constant [102 x i8] c"generated/home/dtcxzyw/WorkSpace/SDK/vcpkg/installed/x64-linux/include/boost/smart_ptr/shared_ptr.hpp\00", align 1
@__PRETTY_FUNCTION__._ZNK5boost10shared_ptrIN8QuantLib13HestonProcessEEptEv = private unnamed_addr constant [143 x i8] c"typename boost::detail::sp_member_access<T>::type boost::shared_ptr<QuantLib::HestonProcess>::operator->() const [T = QuantLib::HestonProcess]\00", align 1

; Function Attrs: mustprogress nounwind uwtable
define linkonce_odr noundef double @_ZNK8QuantLib13HestonProcess3rhoEv(ptr noundef nonnull align 8 dereferenceable(220) %this) #1 comdat align 2 {
entry:
  %this.addr = alloca ptr, align 8
  store ptr %this, ptr %this.addr, align 8, !tbaa !3
  %this1 = load ptr, ptr %this.addr, align 8
  %rho_ = getelementptr inbounds nuw %"class.QuantLib::HestonProcess", ptr %this1, i32 0, i32 8
  %0 = load double, ptr %rho_, align 8, !tbaa !84
  ret double %0
}

; Function Attrs: mustprogress nounwind uwtable
define linkonce_odr noundef double @_ZNK8QuantLib13HestonProcess5sigmaEv(ptr noundef nonnull align 8 dereferenceable(220) %this) #1 comdat align 2 {
entry:
  %this.addr = alloca ptr, align 8
  store ptr %this, ptr %this.addr, align 8, !tbaa !3
  %this1 = load ptr, ptr %this.addr, align 8
  %sigma_ = getelementptr inbounds nuw %"class.QuantLib::HestonProcess", ptr %this1, i32 0, i32 7
  %0 = load double, ptr %sigma_, align 8, !tbaa !83
  ret double %0
}

; Function Attrs: mustprogress nounwind uwtable
define linkonce_odr noundef double @_ZNK8QuantLib13HestonProcess5thetaEv(ptr noundef nonnull align 8 dereferenceable(220) %this) #1 comdat align 2 {
entry:
  %this.addr = alloca ptr, align 8
  store ptr %this, ptr %this.addr, align 8, !tbaa !3
  %this1 = load ptr, ptr %this.addr, align 8
  %theta_ = getelementptr inbounds nuw %"class.QuantLib::HestonProcess", ptr %this1, i32 0, i32 6
  %0 = load double, ptr %theta_, align 8, !tbaa !82
  ret double %0
}

; Function Attrs: mustprogress nounwind uwtable
define linkonce_odr noundef double @_ZNK8QuantLib13HestonProcess5kappaEv(ptr noundef nonnull align 8 dereferenceable(220) %this) #1 comdat align 2 {
entry:
  %this.addr = alloca ptr, align 8
  store ptr %this, ptr %this.addr, align 8, !tbaa !3
  %this1 = load ptr, ptr %this.addr, align 8
  %kappa_ = getelementptr inbounds nuw %"class.QuantLib::HestonProcess", ptr %this1, i32 0, i32 5
  %0 = load double, ptr %kappa_, align 8, !tbaa !81
  ret double %0
}

; Function Attrs: mustprogress nounwind uwtable
define linkonce_odr noundef double @_ZNK8QuantLib13HestonProcess2v0Ev(ptr noundef nonnull align 8 dereferenceable(220) %this) #1 comdat align 2 {
entry:
  %this.addr = alloca ptr, align 8
  store ptr %this, ptr %this.addr, align 8, !tbaa !3
  %this1 = load ptr, ptr %this.addr, align 8
  %v0_ = getelementptr inbounds nuw %"class.QuantLib::HestonProcess", ptr %this1, i32 0, i32 4
  %0 = load double, ptr %v0_, align 8, !tbaa !74
  ret double %0
}

; Function Attrs: mustprogress uwtable
define linkonce_odr noundef ptr @_ZNK5boost10shared_ptrIN8QuantLib13HestonProcessEEptEv(ptr noundef nonnull align 8 dereferenceable(16) %this) #2 comdat align 2 {
entry:
  %this.addr = alloca ptr, align 8
  store ptr %this, ptr %this.addr, align 8, !tbaa !3
  %this1 = load ptr, ptr %this.addr, align 8
  %px = getelementptr inbounds nuw %"class.boost::shared_ptr.10", ptr %this1, i32 0, i32 0
  %0 = load ptr, ptr %px, align 8, !tbaa !38
  %cmp = icmp ne ptr %0, null
  %lnot = xor i1 %cmp, true
  %lnot2 = xor i1 %lnot, true
  %conv = zext i1 %lnot2 to i64
  %expval = call i64 @llvm.expect.i64(i64 %conv, i64 1)
  %tobool = icmp ne i64 %expval, 0
  br i1 %tobool, label %cond.true, label %cond.false

cond.true:                                        ; preds = %entry
  br label %cond.end

cond.false:                                       ; preds = %entry
  call void @_ZN5boost16assertion_failedEPKcS1_S1_l(ptr noundef @.str.9, ptr noundef @__PRETTY_FUNCTION__._ZNK5boost10shared_ptrIN8QuantLib13HestonProcessEEptEv, ptr noundef @.str.10, i64 noundef 784)
  br label %cond.end

cond.end:                                         ; preds = %cond.false, %cond.true
  %px3 = getelementptr inbounds nuw %"class.boost::shared_ptr.10", ptr %this1, i32 0, i32 0
  %1 = load ptr, ptr %px3, align 8, !tbaa !38
  ret ptr %1
}

; Function Attrs: mustprogress uwtable
define void @_ZN8QuantLib16HestonSLVProcess13setParametersEv(ptr noundef nonnull align 8 dereferenceable(216) %this) #2 align 2 {
entry:
  %this.addr = alloca ptr, align 8
  store ptr %this, ptr %this.addr, align 8, !tbaa !3
  %this1 = load ptr, ptr %this.addr, align 8
  %hestonProcess_ = getelementptr inbounds nuw %"class.QuantLib::HestonSLVProcess", ptr %this1, i32 0, i32 8
  %call = call noundef ptr @_ZNK5boost10shared_ptrIN8QuantLib13HestonProcessEEptEv(ptr noundef nonnull align 8 dereferenceable(16) %hestonProcess_)
  %call2 = call noundef double @_ZNK8QuantLib13HestonProcess2v0Ev(ptr noundef nonnull align 8 dereferenceable(220) %call)
  %v0_ = getelementptr inbounds nuw %"class.QuantLib::HestonSLVProcess", ptr %this1, i32 0, i32 5
  store double %call2, ptr %v0_, align 8, !tbaa !42
  %hestonProcess_3 = getelementptr inbounds nuw %"class.QuantLib::HestonSLVProcess", ptr %this1, i32 0, i32 8
  %call4 = call noundef ptr @_ZNK5boost10shared_ptrIN8QuantLib13HestonProcessEEptEv(ptr noundef nonnull align 8 dereferenceable(16) %hestonProcess_3)
  %call5 = call noundef double @_ZNK8QuantLib13HestonProcess5kappaEv(ptr noundef nonnull align 8 dereferenceable(220) %call4)
  %kappa_ = getelementptr inbounds nuw %"class.QuantLib::HestonSLVProcess", ptr %this1, i32 0, i32 1
  store double %call5, ptr %kappa_, align 8, !tbaa !43
  %hestonProcess_6 = getelementptr inbounds nuw %"class.QuantLib::HestonSLVProcess", ptr %this1, i32 0, i32 8
  %call7 = call noundef ptr @_ZNK5boost10shared_ptrIN8QuantLib13HestonProcessEEptEv(ptr noundef nonnull align 8 dereferenceable(16) %hestonProcess_6)
  %call8 = call noundef double @_ZNK8QuantLib13HestonProcess5thetaEv(ptr noundef nonnull align 8 dereferenceable(220) %call7)
  %theta_ = getelementptr inbounds nuw %"class.QuantLib::HestonSLVProcess", ptr %this1, i32 0, i32 2
  store double %call8, ptr %theta_, align 8, !tbaa !44
  %hestonProcess_9 = getelementptr inbounds nuw %"class.QuantLib::HestonSLVProcess", ptr %this1, i32 0, i32 8
  %call10 = call noundef ptr @_ZNK5boost10shared_ptrIN8QuantLib13HestonProcessEEptEv(ptr noundef nonnull align 8 dereferenceable(16) %hestonProcess_9)
  %call11 = call noundef double @_ZNK8QuantLib13HestonProcess5sigmaEv(ptr noundef nonnull align 8 dereferenceable(220) %call10)
  %sigma_ = getelementptr inbounds nuw %"class.QuantLib::HestonSLVProcess", ptr %this1, i32 0, i32 3
  store double %call11, ptr %sigma_, align 8, !tbaa !45
  %hestonProcess_12 = getelementptr inbounds nuw %"class.QuantLib::HestonSLVProcess", ptr %this1, i32 0, i32 8
  %call13 = call noundef ptr @_ZNK5boost10shared_ptrIN8QuantLib13HestonProcessEEptEv(ptr noundef nonnull align 8 dereferenceable(16) %hestonProcess_12)
  %call14 = call noundef double @_ZNK8QuantLib13HestonProcess3rhoEv(ptr noundef nonnull align 8 dereferenceable(220) %call13)
  %rho_ = getelementptr inbounds nuw %"class.QuantLib::HestonSLVProcess", ptr %this1, i32 0, i32 4
  store double %call14, ptr %rho_, align 8, !tbaa !46
  %mixingFactor_ = getelementptr inbounds nuw %"class.QuantLib::HestonSLVProcess", ptr %this1, i32 0, i32 6
  %0 = load double, ptr %mixingFactor_, align 8, !tbaa !16
  %sigma_15 = getelementptr inbounds nuw %"class.QuantLib::HestonSLVProcess", ptr %this1, i32 0, i32 3
  %1 = load double, ptr %sigma_15, align 8, !tbaa !45
  %mul = fmul double %0, %1
  %mixedSigma_ = getelementptr inbounds nuw %"class.QuantLib::HestonSLVProcess", ptr %this1, i32 0, i32 7
  store double %mul, ptr %mixedSigma_, align 8, !tbaa !47
  ret void
}