; Function Attrs: mustprogress uwtable
define void @_ZN8QuantLib16HestonSLVProcess13setParametersEv(ptr nocapture noundef nonnull align 8 dereferenceable(216) %this) local_unnamed_addr #6 align 2 {
entry:
  %hestonProcess_ = getelementptr inbounds nuw i8, ptr %this, i64 184
  %0 = load ptr, ptr %hestonProcess_, align 8, !tbaa !45
  %cmp.not.i = icmp eq ptr %0, null
  br i1 %cmp.not.i, label %_ZNK5boost10shared_ptrIN8QuantLib13HestonProcessEEptEv.exit, label %_ZNK5boost10shared_ptrIN8QuantLib13HestonProcessEEptEv.exit16, !prof !53

_ZNK5boost10shared_ptrIN8QuantLib13HestonProcessEEptEv.exit: ; preds = %entry
  tail call void @_ZN5boost16assertion_failedEPKcS1_S1_l(ptr noundef nonnull @.str.9, ptr noundef nonnull @__PRETTY_FUNCTION__._ZNK5boost10shared_ptrIN8QuantLib13HestonProcessEEptEv, ptr noundef nonnull @.str.10, i64 noundef 784)
  %.pre.i = load ptr, ptr %hestonProcess_, align 8, !tbaa !45
  br label %_ZNK5boost10shared_ptrIN8QuantLib13HestonProcessEEptEv.exit16

_ZNK5boost10shared_ptrIN8QuantLib13HestonProcessEEptEv.exit16: ; preds = %_ZNK5boost10shared_ptrIN8QuantLib13HestonProcessEEptEv.exit, %entry
  %.pr20 = phi ptr [ %.pre.i, %_ZNK5boost10shared_ptrIN8QuantLib13HestonProcessEEptEv.exit ], [ %0, %entry ]
  %.sink.in = getelementptr inbounds nuw i8, ptr %.pr20, i64 176
  %.sink = load double, ptr %.sink.in, align 8, !tbaa !54
  %1 = getelementptr inbounds nuw i8, ptr %this, i64 160
  store double %.sink, ptr %1, align 8
  %kappa_.i = getelementptr inbounds nuw i8, ptr %.pr20, i64 184
  %2 = load double, ptr %kappa_.i, align 8, !tbaa !61
  %kappa_ = getelementptr inbounds nuw i8, ptr %this, i64 128
  store double %2, ptr %kappa_, align 8, !tbaa !62
  %theta_.i = getelementptr inbounds nuw i8, ptr %.pr20, i64 192
  %3 = load double, ptr %theta_.i, align 8, !tbaa !63
  %theta_ = getelementptr inbounds nuw i8, ptr %this, i64 136
  store double %3, ptr %theta_, align 8, !tbaa !64
  %sigma_.i = getelementptr inbounds nuw i8, ptr %.pr20, i64 200
  %4 = load double, ptr %sigma_.i, align 8, !tbaa !65
  %sigma_ = getelementptr inbounds nuw i8, ptr %this, i64 144
  store double %4, ptr %sigma_, align 8, !tbaa !66
  %rho_.i = getelementptr inbounds nuw i8, ptr %.pr20, i64 208
  %5 = load double, ptr %rho_.i, align 8, !tbaa !67
  %rho_ = getelementptr inbounds nuw i8, ptr %this, i64 152
  store double %5, ptr %rho_, align 8, !tbaa !68
  %mixingFactor_ = getelementptr inbounds nuw i8, ptr %this, i64 168
  %6 = load double, ptr %mixingFactor_, align 8, !tbaa !30
  %mul = fmul double %6, %4
  %mixedSigma_ = getelementptr inbounds nuw i8, ptr %this, i64 176
  store double %mul, ptr %mixedSigma_, align 8, !tbaa !69
  ret void
}